target datalayout = "e-m:e-p270:32:32-p271:32:32-p272:64:64-i64:64-i128:128-f80:128-n8:16:32:64-S128"
target triple = "x86_64-pc-linux-gnu"

%union.SourceSpan = type { i64 }
%struct.Decl_ = type { ptr, ptr, %union.SourceSpan, i64, %union.anon, i32, %union.anon.0, i64, ptr, ptr, ptr, %union.anon.1 }
%union.anon = type { ptr }
%union.anon.0 = type { i16 }
%union.anon.1 = type { %struct.FuncDecl }
%struct.FuncDecl = type { i32, [4 x i8], %struct.Signature_, i32, i32, %union.anon.8 }
%struct.Signature_ = type <{ %struct.CalleeAttributes, i16, i8, i32, i32, [4 x i8], ptr }>
%struct.CalleeAttributes = type { i8 }
%union.anon.8 = type { %struct.anon.9 }
%struct.anon.9 = type { i16, %union.anon.10 }
%union.anon.10 = type { ptr }
%struct.SemaContext_ = type { ptr, ptr, ptr, %struct.CallEnv, ptr, %union.SourceSpan, i32, i32, ptr, i32, ptr, i32, i32, ptr, ptr, i32, %struct.anon.89, ptr, ptr, ptr, %struct.DynamicScope_, ptr }
%struct.CallEnv = type { i16, ptr, %union.anon.60 }
%union.anon.60 = type { ptr }
%struct.anon.89 = type { i32, ptr, ptr, ptr, ptr, ptr, ptr, ptr, ptr, ptr, i8, ptr }
%struct.DynamicScope_ = type { i32, i8, i32, i32, i32, i32, i32, ptr, i32 }

; Function Attrs: nounwind uwtable
define dso_local ptr @sema_find_label_symbol(ptr noundef %0, ptr noundef %1) #0 {
  %3 = alloca ptr, align 8
  %4 = alloca ptr, align 8
  %5 = alloca ptr, align 8
  %6 = alloca ptr, align 8
  %7 = alloca i64, align 8
  %8 = alloca i64, align 8
  %9 = alloca ptr, align 8
  store ptr %0, ptr %4, align 8
  store ptr %1, ptr %5, align 8
  %10 = load ptr, ptr %4, align 8
  %11 = getelementptr inbounds %struct.SemaContext_, ptr %10, i32 0, i32 19
  %12 = load ptr, ptr %11, align 8
  store ptr %12, ptr %6, align 8
  %13 = load ptr, ptr %6, align 8
  %14 = icmp ne ptr %13, null
  br i1 %14, label %15, label %21

15:                                               ; preds = %2
  %16 = load ptr, ptr %4, align 8
  %17 = getelementptr inbounds %struct.SemaContext_, ptr %16, i32 0, i32 20
  %18 = getelementptr inbounds %struct.DynamicScope_, ptr %17, i32 0, i32 4
  %19 = load i32, ptr %18, align 8
  %20 = icmp ne i32 %19, 0
  br i1 %20, label %22, label %21

21:                                               ; preds = %15, %2
  store ptr null, ptr %3, align 8
  br label %53

22:                                               ; preds = %15
  %23 = load ptr, ptr %4, align 8
  %24 = getelementptr inbounds %struct.SemaContext_, ptr %23, i32 0, i32 20
  %25 = getelementptr inbounds %struct.DynamicScope_, ptr %24, i32 0, i32 3
  %26 = load i32, ptr %25, align 4
  %27 = zext i32 %26 to i64
  store i64 %27, ptr %7, align 8
  %28 = load ptr, ptr %4, align 8
  %29 = getelementptr inbounds %struct.SemaContext_, ptr %28, i32 0, i32 20
  %30 = getelementptr inbounds %struct.DynamicScope_, ptr %29, i32 0, i32 4
  %31 = load i32, ptr %30, align 8
  %32 = sub i32 %31, 1
  %33 = zext i32 %32 to i64
  store i64 %33, ptr %8, align 8
  br label %34

34:                                               ; preds = %51, %22
  %35 = load i64, ptr %8, align 8
  %36 = load i64, ptr %7, align 8
  %37 = icmp sge i64 %35, %36
  br i1 %37, label %38, label %52

38:                                               ; preds = %34
  %39 = load ptr, ptr %6, align 8
  %40 = load i64, ptr %8, align 8
  %41 = add nsw i64 %40, -1
  store i64 %41, ptr %8, align 8
  %42 = getelementptr inbounds ptr, ptr %39, i64 %40
  %43 = load ptr, ptr %42, align 8
  store ptr %43, ptr %9, align 8
  %44 = load ptr, ptr %9, align 8
  %45 = getelementptr inbounds %struct.Decl_, ptr %44, i32 0, i32 0
  %46 = load ptr, ptr %45, align 8
  %47 = load ptr, ptr %5, align 8
  %48 = icmp eq ptr %46, %47
  br i1 %48, label %49, label %51

49:                                               ; preds = %38
  %50 = load ptr, ptr %9, align 8
  store ptr %50, ptr %3, align 8
  br label %53

51:                                               ; preds = %38
  br label %34, !llvm.loop !26

52:                                               ; preds = %34
  store ptr null, ptr %3, align 8
  br label %53

53:                                               ; preds = %52, %49, %21
  %54 = load ptr, ptr %3, align 8
  ret ptr %54
}