; Function Attrs: nofree norecurse nosync nounwind memory(read, inaccessiblemem: none) uwtable
define dso_local noundef ptr @sema_find_label_symbol(ptr nocapture noundef readonly %0, ptr noundef readnone %1) local_unnamed_addr #0 {
  %3 = getelementptr inbounds i8, ptr %0, i64 240
  %4 = load ptr, ptr %3, align 8
  %.not = icmp eq ptr %4, null
  br i1 %.not, label %.loopexit, label %5

5:                                                ; preds = %2
  %6 = getelementptr inbounds i8, ptr %0, i64 264
  %7 = load i32, ptr %6, align 8
  %.not15 = icmp eq i32 %7, 0
  br i1 %.not15, label %.loopexit, label %8

8:                                                ; preds = %5
  %9 = getelementptr inbounds i8, ptr %0, i64 260
  %10 = load i32, ptr %9, align 4
  %11 = zext i32 %10 to i64
  %12 = add i32 %7, -1
  %13 = zext i32 %12 to i64
  br label %14

14:                                               ; preds = %15, %8
  %.012 = phi i64 [ %13, %8 ], [ %16, %15 ]
  %.not16 = icmp slt i64 %.012, %11
  br i1 %.not16, label %.loopexit, label %15

15:                                               ; preds = %14
  %16 = add nsw i64 %.012, -1
  %17 = getelementptr inbounds ptr, ptr %4, i64 %.012
  %18 = load ptr, ptr %17, align 8
  %19 = load ptr, ptr %18, align 8
  %20 = icmp eq ptr %19, %1
  br i1 %20, label %.loopexit, label %14, !llvm.loop !25

.loopexit:                                        ; preds = %14, %15, %2, %5
  %.0 = phi ptr [ null, %5 ], [ null, %2 ], [ null, %14 ], [ %18, %15 ]
  ret ptr %.0
}